target datalayout = "e-m:e-p270:32:32-p271:32:32-p272:64:64-i64:64-i128:128-f80:128-n8:16:32:64-S128"
target triple = "x86_64-pc-linux-gnu"

@s_pResbMan = internal global ptr null, align 8

; Function Attrs: nounwind uwtable
define void @Abc_ResubPrepareManager(i32 noundef %0) #0 {
  %2 = alloca i32, align 4
  store i32 %0, ptr %2, align 4, !tbaa !10
  %3 = load ptr, ptr @s_pResbMan, align 8, !tbaa !67
  %4 = icmp ne ptr %3, null
  br i1 %4, label %5, label %7

5:                                                ; preds = %1
  %6 = load ptr, ptr @s_pResbMan, align 8, !tbaa !67
  call void @Gia_ResbFree(ptr noundef %6)
  br label %7

7:                                                ; preds = %5, %1
  store ptr null, ptr @s_pResbMan, align 8, !tbaa !67
  %8 = load i32, ptr %2, align 4, !tbaa !10
  %9 = icmp sgt i32 %8, 0
  br i1 %9, label %10, label %13

10:                                               ; preds = %7
  %11 = load i32, ptr %2, align 4, !tbaa !10
  %12 = call ptr @Gia_ResbAlloc(i32 noundef %11)
  store ptr %12, ptr @s_pResbMan, align 8, !tbaa !67
  br label %13

13:                                               ; preds = %10, %7
  ret void
}