; Function Attrs: nounwind uwtable
define void @Abc_ResubPrepareManager(i32 noundef %0) local_unnamed_addr #0 {
  %2 = load ptr, ptr @s_pResbMan, align 8, !tbaa !184
  %.not = icmp eq ptr %2, null
  br i1 %.not, label %4, label %3

3:                                                ; preds = %1
  tail call void @Gia_ResbFree(ptr noundef nonnull %2)
  br label %4

4:                                                ; preds = %3, %1
  store ptr null, ptr @s_pResbMan, align 8, !tbaa !184
  %5 = icmp sgt i32 %0, 0
  br i1 %5, label %6, label %8

6:                                                ; preds = %4
  %7 = tail call ptr @Gia_ResbAlloc(i32 noundef %0)
  store ptr %7, ptr @s_pResbMan, align 8, !tbaa !184
  br label %8

8:                                                ; preds = %6, %4
  ret void
}